target datalayout = "e-m:e-p270:32:32-p271:32:32-p272:64:64-i64:64-i128:128-f80:128-n8:16:32:64-S128"
target triple = "x86_64-unknown-linux-gnu"

%"class.cvc5::internal::smt::DifficultyPostprocessCallback" = type { %"class.cvc5::internal::ProofNodeUpdaterCallback", i64, %"class.std::map" }
%"class.cvc5::internal::ProofNodeUpdaterCallback" = type { ptr }
%"class.std::map" = type { %"class.std::_Rb_tree" }
%"class.std::_Rb_tree" = type { %"struct.std::_Rb_tree<cvc5::internal::NodeTemplate<true>, std::pair<const cvc5::internal::NodeTemplate<true>, unsigned long>, std::_Select1st<std::pair<const cvc5::internal::NodeTemplate<true>, unsigned long>>, std::less<cvc5::internal::NodeTemplate<true>>>::_Rb_tree_impl" }
%"struct.std::_Rb_tree<cvc5::internal::NodeTemplate<true>, std::pair<const cvc5::internal::NodeTemplate<true>, unsigned long>, std::_Select1st<std::pair<const cvc5::internal::NodeTemplate<true>, unsigned long>>, std::less<cvc5::internal::NodeTemplate<true>>>::_Rb_tree_impl" = type { %"struct.std::_Rb_tree_key_compare", %"struct.std::_Rb_tree_header" }
%"struct.std::_Rb_tree_key_compare" = type { %"struct.std::less" }
%"struct.std::less" = type { i8 }
%"struct.std::_Rb_tree_header" = type { %"struct.std::_Rb_tree_node_base", i64 }
%"struct.std::_Rb_tree_node_base" = type { i32, ptr, ptr, ptr }
%"class.cvc5::internal::TypeNode" = type { ptr }
%"class.cvc5::internal::Integer" = type { %class.__gmp_expr.0 }
%class.__gmp_expr.0 = type { [1 x %struct.__mpz_struct] }
%struct.__mpz_struct = type { i32, i32, ptr }
%"class.cvc5::internal::NodeTemplate" = type { ptr }
%"class.cvc5::internal::Rational" = type { %class.__gmp_expr }
%class.__gmp_expr = type { [1 x %struct.__mpq_struct] }
%struct.__mpq_struct = type { %struct.__mpz_struct, %struct.__mpz_struct }

; Function Attrs: mustprogress uwtable
define linkonce_odr hidden void @_ZN10__gmp_exprIA1_12__mpz_structS1_EC2ERKS2_(ptr noundef nonnull align 8 dereferenceable(16) %this, ptr noundef nonnull align 8 dereferenceable(16) %z) unnamed_addr #4 comdat align 2 {
entry:
  %this.addr = alloca ptr, align 8
  %z.addr = alloca ptr, align 8
  store ptr %this, ptr %this.addr, align 8
  store ptr %z, ptr %z.addr, align 8
  %this1 = load ptr, ptr %this.addr, align 8
  %mp2 = getelementptr inbounds %class.__gmp_expr.0, ptr %this1, i32 0, i32 0
  %arraydecay = getelementptr inbounds [1 x %struct.__mpz_struct], ptr %mp2, i64 0, i64 0
  %0 = load ptr, ptr %z.addr, align 8
  %mp3 = getelementptr inbounds %class.__gmp_expr.0, ptr %0, i32 0, i32 0
  %arraydecay4 = getelementptr inbounds [1 x %struct.__mpz_struct], ptr %mp3, i64 0, i64 0
  call void @__gmpz_init_set(ptr noundef %arraydecay, ptr noundef %arraydecay4)
  ret void
}

; Function Attrs: mustprogress nounwind uwtable
define linkonce_odr hidden void @_ZN10__gmp_exprIA1_12__mpz_structS1_ED2Ev(ptr noundef nonnull align 8 dereferenceable(16) %this) unnamed_addr #5 comdat align 2 personality ptr @__gxx_personality_v0 {
entry:
  %this.addr = alloca ptr, align 8
  store ptr %this, ptr %this.addr, align 8
  %this1 = load ptr, ptr %this.addr, align 8
  %mp = getelementptr inbounds %class.__gmp_expr.0, ptr %this1, i32 0, i32 0
  %arraydecay = getelementptr inbounds [1 x %struct.__mpz_struct], ptr %mp, i64 0, i64 0
  invoke void @__gmpz_clear(ptr noundef %arraydecay)
          to label %invoke.cont unwind label %terminate.lpad

invoke.cont:                                      ; preds = %entry
  ret void

terminate.lpad:                                   ; preds = %entry
  %0 = landingpad { ptr, i32 }
          catch ptr null
  %1 = extractvalue { ptr, i32 } %0, 0
  call void @__clang_call_terminate(ptr %1) #14
  unreachable
}

; Function Attrs: mustprogress uwtable
define linkonce_odr hidden void @_ZN4cvc58internal7IntegerC2ERK10__gmp_exprIA1_12__mpz_structS4_E(ptr noundef nonnull align 8 dereferenceable(16) %this, ptr noundef nonnull align 8 dereferenceable(16) %val) unnamed_addr #4 comdat align 2 {
entry:
  %this.addr = alloca ptr, align 8
  %val.addr = alloca ptr, align 8
  store ptr %this, ptr %this.addr, align 8
  store ptr %val, ptr %val.addr, align 8
  %this1 = load ptr, ptr %this.addr, align 8
  %d_value = getelementptr inbounds %"class.cvc5::internal::Integer", ptr %this1, i32 0, i32 0
  %0 = load ptr, ptr %val.addr, align 8
  call void @_ZN10__gmp_exprIA1_12__mpz_structS1_EC2ERKS2_(ptr noundef nonnull align 8 dereferenceable(16) %d_value, ptr noundef nonnull align 8 dereferenceable(16) %0)
  ret void
}

; Function Attrs: mustprogress nounwind uwtable
define linkonce_odr hidden noundef nonnull align 8 dereferenceable(16) ptr @_ZNK10__gmp_exprIA1_12__mpq_structS1_E7get_numEv(ptr noundef nonnull align 8 dereferenceable(32) %this) #5 comdat align 2 {
entry:
  %this.addr = alloca ptr, align 8
  store ptr %this, ptr %this.addr, align 8
  %this1 = load ptr, ptr %this.addr, align 8
  %mp = getelementptr inbounds %class.__gmp_expr, ptr %this1, i32 0, i32 0
  %arraydecay = getelementptr inbounds [1 x %struct.__mpq_struct], ptr %mp, i64 0, i64 0
  %_mp_num = getelementptr inbounds %struct.__mpq_struct, ptr %arraydecay, i32 0, i32 0
  ret ptr %_mp_num
}

; Function Attrs: mustprogress nounwind uwtable
define linkonce_odr hidden noundef ptr @_ZNK10__gmp_exprIA1_12__mpq_structS1_E9get_mpq_tEv(ptr noundef nonnull align 8 dereferenceable(32) %this) #5 comdat align 2 {
entry:
  %this.addr = alloca ptr, align 8
  store ptr %this, ptr %this.addr, align 8
  %this1 = load ptr, ptr %this.addr, align 8
  %mp = getelementptr inbounds %class.__gmp_expr, ptr %this1, i32 0, i32 0
  %arraydecay = getelementptr inbounds [1 x %struct.__mpq_struct], ptr %mp, i64 0, i64 0
  ret ptr %arraydecay
}

; Function Attrs: mustprogress nounwind uwtable
define linkonce_odr hidden void @_ZNK4cvc58internal12NodeTemplateILb1EE21assertTNodeNotExpiredEv(ptr noundef nonnull align 8 dereferenceable(8) %this) #5 comdat align 2 {
entry:
  %this.addr = alloca ptr, align 8
  store ptr %this, ptr %this.addr, align 8
  ret void
}

; Function Attrs: mustprogress nounwind uwtable
define linkonce_odr hidden void @_ZN4cvc58internal7IntegerD2Ev(ptr noundef nonnull align 8 dereferenceable(16) %this) unnamed_addr #5 comdat align 2 {
entry:
  %this.addr = alloca ptr, align 8
  store ptr %this, ptr %this.addr, align 8
  %this1 = load ptr, ptr %this.addr, align 8
  %d_value = getelementptr inbounds %"class.cvc5::internal::Integer", ptr %this1, i32 0, i32 0
  call void @_ZN10__gmp_exprIA1_12__mpz_structS1_ED2Ev(ptr noundef nonnull align 8 dereferenceable(16) %d_value) #3
  ret void
}

; Function Attrs: mustprogress uwtable
define linkonce_odr hidden void @_ZNK4cvc58internal8Rational12getNumeratorEv(ptr noalias sret(%"class.cvc5::internal::Integer") align 8 %agg.result, ptr noundef nonnull align 8 dereferenceable(32) %this) #4 comdat align 2 {
entry:
  %result.ptr = alloca ptr, align 8
  %this.addr = alloca ptr, align 8
  store ptr %agg.result, ptr %result.ptr, align 8
  store ptr %this, ptr %this.addr, align 8
  %this1 = load ptr, ptr %this.addr, align 8
  %d_value = getelementptr inbounds %"class.cvc5::internal::Rational", ptr %this1, i32 0, i32 0
  %call = call noundef nonnull align 8 dereferenceable(16) ptr @_ZNK10__gmp_exprIA1_12__mpq_structS1_E7get_numEv(ptr noundef nonnull align 8 dereferenceable(32) %d_value)
  call void @_ZN4cvc58internal7IntegerC2ERK10__gmp_exprIA1_12__mpz_structS4_E(ptr noundef nonnull align 8 dereferenceable(16) %agg.result, ptr noundef nonnull align 8 dereferenceable(16) %call)
  ret void
}

; Function Attrs: mustprogress uwtable
define linkonce_odr hidden noundef i32 @_ZNK4cvc58internal8Rational3sgnEv(ptr noundef nonnull align 8 dereferenceable(32) %this) #4 comdat align 2 {
entry:
  %this.addr = alloca ptr, align 8
  store ptr %this, ptr %this.addr, align 8
  %this1 = load ptr, ptr %this.addr, align 8
  %d_value = getelementptr inbounds %"class.cvc5::internal::Rational", ptr %this1, i32 0, i32 0
  %call = call noundef ptr @_ZNK10__gmp_exprIA1_12__mpq_structS1_E9get_mpq_tEv(ptr noundef nonnull align 8 dereferenceable(32) %d_value)
  %_mp_num = getelementptr inbounds %struct.__mpq_struct, ptr %call, i32 0, i32 0
  %_mp_size = getelementptr inbounds %struct.__mpz_struct, ptr %_mp_num, i32 0, i32 1
  %0 = load i32, ptr %_mp_size, align 4
  %cmp = icmp slt i32 %0, 0
  br i1 %cmp, label %cond.true, label %cond.false

cond.true:                                        ; preds = %entry
  br label %cond.end

cond.false:                                       ; preds = %entry
  %d_value2 = getelementptr inbounds %"class.cvc5::internal::Rational", ptr %this1, i32 0, i32 0
  %call3 = call noundef ptr @_ZNK10__gmp_exprIA1_12__mpq_structS1_E9get_mpq_tEv(ptr noundef nonnull align 8 dereferenceable(32) %d_value2)
  %_mp_num4 = getelementptr inbounds %struct.__mpq_struct, ptr %call3, i32 0, i32 0
  %_mp_size5 = getelementptr inbounds %struct.__mpz_struct, ptr %_mp_num4, i32 0, i32 1
  %1 = load i32, ptr %_mp_size5, align 4
  %cmp6 = icmp sgt i32 %1, 0
  %conv = zext i1 %cmp6 to i32
  br label %cond.end

cond.end:                                         ; preds = %cond.false, %cond.true
  %cond = phi i32 [ -1, %cond.true ], [ %conv, %cond.false ]
  ret i32 %cond
}

; Function Attrs: mustprogress uwtable
define linkonce_odr hidden noundef nonnull align 8 dereferenceable(32) ptr @_ZNK4cvc58internal12NodeTemplateILb1EE8getConstINS0_8RationalEEERKT_v(ptr noundef nonnull align 8 dereferenceable(8) %this) #4 comdat align 2 {
entry:
  %this.addr = alloca ptr, align 8
  store ptr %this, ptr %this.addr, align 8
  %this1 = load ptr, ptr %this.addr, align 8
  call void @_ZNK4cvc58internal12NodeTemplateILb1EE21assertTNodeNotExpiredEv(ptr noundef nonnull align 8 dereferenceable(8) %this1)
  %d_nv = getelementptr inbounds %"class.cvc5::internal::NodeTemplate", ptr %this1, i32 0, i32 0
  %0 = load ptr, ptr %d_nv, align 8
  %call = call noundef nonnull align 8 dereferenceable(32) ptr @_ZNK4cvc58internal4expr9NodeValue8getConstINS0_8RationalEEERKT_v(ptr noundef nonnull align 8 dereferenceable(16) %0)
  ret ptr %call
}

; Function Attrs: mustprogress uwtable
define hidden noundef zeroext i1 @_ZN4cvc58internal3smt29DifficultyPostprocessCallback20setCurrentDifficultyENS0_12NodeTemplateILb1EEE(ptr noundef nonnull align 8 dereferenceable(64) %this, ptr noundef %d) #4 align 2 personality ptr @__gxx_personality_v0 {
entry:
  %retval = alloca i1, align 1
  %this.addr = alloca ptr, align 8
  %d.indirect_addr = alloca ptr, align 8
  %ref.tmp = alloca %"class.cvc5::internal::TypeNode", align 8
  %cleanup.cond = alloca i1, align 1
  %exn.slot = alloca ptr, align 8
  %ehselector.slot = alloca i32, align 4
  %ref.tmp8 = alloca %"class.cvc5::internal::Integer", align 8
  %cleanup.cond12 = alloca i1, align 1
  %ref.tmp25 = alloca %"class.cvc5::internal::Integer", align 8
  store ptr %this, ptr %this.addr, align 8
  store ptr %d, ptr %d.indirect_addr, align 8
  %this1 = load ptr, ptr %this.addr, align 8
  %call = call noundef zeroext i1 @_ZNK4cvc58internal12NodeTemplateILb1EE7isConstEv(ptr noundef nonnull align 8 dereferenceable(8) %d)
  store i1 false, ptr %cleanup.cond, align 1
  store i1 false, ptr %cleanup.cond12, align 1
  br i1 %call, label %land.lhs.true, label %land.end

land.lhs.true:                                    ; preds = %entry
  call void @_ZNK4cvc58internal12NodeTemplateILb1EE7getTypeEb(ptr sret(%"class.cvc5::internal::TypeNode") align 8 %ref.tmp, ptr noundef nonnull align 8 dereferenceable(8) %d, i1 noundef zeroext false)
  store i1 true, ptr %cleanup.cond, align 1
  %call2 = invoke noundef zeroext i1 @_ZNK4cvc58internal8TypeNode9isIntegerEv(ptr noundef nonnull align 8 dereferenceable(8) %ref.tmp)
          to label %invoke.cont unwind label %lpad

invoke.cont:                                      ; preds = %land.lhs.true
  br i1 %call2, label %land.lhs.true3, label %land.end

land.lhs.true3:                                   ; preds = %invoke.cont
  %call5 = invoke noundef nonnull align 8 dereferenceable(32) ptr @_ZNK4cvc58internal12NodeTemplateILb1EE8getConstINS0_8RationalEEERKT_v(ptr noundef nonnull align 8 dereferenceable(8) %d)
          to label %invoke.cont4 unwind label %lpad

invoke.cont4:                                     ; preds = %land.lhs.true3
  %call7 = invoke noundef i32 @_ZNK4cvc58internal8Rational3sgnEv(ptr noundef nonnull align 8 dereferenceable(32) %call5)
          to label %invoke.cont6 unwind label %lpad

invoke.cont6:                                     ; preds = %invoke.cont4
  %cmp = icmp sge i32 %call7, 0
  br i1 %cmp, label %land.rhs, label %land.end

land.rhs:                                         ; preds = %invoke.cont6
  %call10 = invoke noundef nonnull align 8 dereferenceable(32) ptr @_ZNK4cvc58internal12NodeTemplateILb1EE8getConstINS0_8RationalEEERKT_v(ptr noundef nonnull align 8 dereferenceable(8) %d)
          to label %invoke.cont9 unwind label %lpad

invoke.cont9:                                     ; preds = %land.rhs
  invoke void @_ZNK4cvc58internal8Rational12getNumeratorEv(ptr sret(%"class.cvc5::internal::Integer") align 8 %ref.tmp8, ptr noundef nonnull align 8 dereferenceable(32) %call10)
          to label %invoke.cont11 unwind label %lpad

invoke.cont11:                                    ; preds = %invoke.cont9
  store i1 true, ptr %cleanup.cond12, align 1
  %call15 = invoke noundef zeroext i1 @_ZNK4cvc58internal7Integer15fitsUnsignedIntEv(ptr noundef nonnull align 8 dereferenceable(16) %ref.tmp8)
          to label %invoke.cont14 unwind label %lpad13

invoke.cont14:                                    ; preds = %invoke.cont11
  br label %land.end

land.end:                                         ; preds = %invoke.cont14, %invoke.cont6, %invoke.cont, %entry
  %0 = phi i1 [ false, %invoke.cont6 ], [ false, %invoke.cont ], [ false, %entry ], [ %call15, %invoke.cont14 ]
  %cleanup.is_active = load i1, ptr %cleanup.cond12, align 1
  br i1 %cleanup.is_active, label %cleanup.action, label %cleanup.done

cleanup.action:                                   ; preds = %land.end
  call void @_ZN4cvc58internal7IntegerD2Ev(ptr noundef nonnull align 8 dereferenceable(16) %ref.tmp8) #3
  br label %cleanup.done

cleanup.done:                                     ; preds = %cleanup.action, %land.end
  %cleanup.is_active19 = load i1, ptr %cleanup.cond, align 1
  br i1 %cleanup.is_active19, label %cleanup.action20, label %cleanup.done21

cleanup.action20:                                 ; preds = %cleanup.done
  call void @_ZN4cvc58internal8TypeNodeD2Ev(ptr noundef nonnull align 8 dereferenceable(8) %ref.tmp) #3
  br label %cleanup.done21

cleanup.done21:                                   ; preds = %cleanup.action20, %cleanup.done
  br i1 %0, label %if.then, label %if.end

if.then:                                          ; preds = %cleanup.done21
  %call26 = call noundef nonnull align 8 dereferenceable(32) ptr @_ZNK4cvc58internal12NodeTemplateILb1EE8getConstINS0_8RationalEEERKT_v(ptr noundef nonnull align 8 dereferenceable(8) %d)
  call void @_ZNK4cvc58internal8Rational12getNumeratorEv(ptr sret(%"class.cvc5::internal::Integer") align 8 %ref.tmp25, ptr noundef nonnull align 8 dereferenceable(32) %call26)
  %call29 = invoke noundef i32 @_ZNK4cvc58internal7Integer13toUnsignedIntEv(ptr noundef nonnull align 8 dereferenceable(16) %ref.tmp25)
          to label %invoke.cont28 unwind label %lpad27

invoke.cont28:                                    ; preds = %if.then
  %conv = zext i32 %call29 to i64
  %d_currDifficulty = getelementptr inbounds %"class.cvc5::internal::smt::DifficultyPostprocessCallback", ptr %this1, i32 0, i32 1
  store i64 %conv, ptr %d_currDifficulty, align 8
  call void @_ZN4cvc58internal7IntegerD2Ev(ptr noundef nonnull align 8 dereferenceable(16) %ref.tmp25) #3
  store i1 true, ptr %retval, align 1
  br label %return

lpad:                                             ; preds = %invoke.cont9, %land.rhs, %invoke.cont4, %land.lhs.true3, %land.lhs.true
  %1 = landingpad { ptr, i32 }
          cleanup
  %2 = extractvalue { ptr, i32 } %1, 0
  store ptr %2, ptr %exn.slot, align 8
  %3 = extractvalue { ptr, i32 } %1, 1
  store i32 %3, ptr %ehselector.slot, align 4
  br label %ehcleanup

lpad13:                                           ; preds = %invoke.cont11
  %4 = landingpad { ptr, i32 }
          cleanup
  %5 = extractvalue { ptr, i32 } %4, 0
  store ptr %5, ptr %exn.slot, align 8
  %6 = extractvalue { ptr, i32 } %4, 1
  store i32 %6, ptr %ehselector.slot, align 4
  %cleanup.is_active16 = load i1, ptr %cleanup.cond12, align 1
  br i1 %cleanup.is_active16, label %cleanup.action17, label %cleanup.done18

cleanup.action17:                                 ; preds = %lpad13
  call void @_ZN4cvc58internal7IntegerD2Ev(ptr noundef nonnull align 8 dereferenceable(16) %ref.tmp8) #3
  br label %cleanup.done18

cleanup.done18:                                   ; preds = %cleanup.action17, %lpad13
  br label %ehcleanup

ehcleanup:                                        ; preds = %cleanup.done18, %lpad
  %cleanup.is_active22 = load i1, ptr %cleanup.cond, align 1
  br i1 %cleanup.is_active22, label %cleanup.action23, label %cleanup.done24

cleanup.action23:                                 ; preds = %ehcleanup
  call void @_ZN4cvc58internal8TypeNodeD2Ev(ptr noundef nonnull align 8 dereferenceable(8) %ref.tmp) #3
  br label %cleanup.done24

cleanup.done24:                                   ; preds = %cleanup.action23, %ehcleanup
  br label %eh.resume

lpad27:                                           ; preds = %if.then
  %7 = landingpad { ptr, i32 }
          cleanup
  %8 = extractvalue { ptr, i32 } %7, 0
  store ptr %8, ptr %exn.slot, align 8
  %9 = extractvalue { ptr, i32 } %7, 1
  store i32 %9, ptr %ehselector.slot, align 4
  call void @_ZN4cvc58internal7IntegerD2Ev(ptr noundef nonnull align 8 dereferenceable(16) %ref.tmp25) #3
  br label %eh.resume

if.end:                                           ; preds = %cleanup.done21
  store i1 false, ptr %retval, align 1
  br label %return

return:                                           ; preds = %if.end, %invoke.cont28
  %10 = load i1, ptr %retval, align 1
  ret i1 %10

eh.resume:                                        ; preds = %lpad27, %cleanup.done24
  %exn = load ptr, ptr %exn.slot, align 8
  %sel = load i32, ptr %ehselector.slot, align 4
  %lpad.val = insertvalue { ptr, i32 } poison, ptr %exn, 0
  %lpad.val31 = insertvalue { ptr, i32 } %lpad.val, i32 %sel, 1
  resume { ptr, i32 } %lpad.val31
}