; Function Attrs: mustprogress uwtable
define hidden noundef zeroext i1 @_ZN4cvc58internal3smt29DifficultyPostprocessCallback20setCurrentDifficultyENS0_12NodeTemplateILb1EEE(ptr nocapture noundef nonnull writeonly align 8 dereferenceable(64) %this, ptr noundef nonnull %d) local_unnamed_addr #3 align 2 personality ptr @__gxx_personality_v0 {
entry:
  %ref.tmp = alloca %"class.cvc5::internal::TypeNode", align 8
  %ref.tmp8 = alloca %"class.cvc5::internal::Integer", align 8
  %ref.tmp25 = alloca %"class.cvc5::internal::Integer", align 8
  %call = tail call noundef zeroext i1 @_ZNK4cvc58internal12NodeTemplateILb1EE7isConstEv(ptr noundef nonnull align 8 dereferenceable(8) %d)
  br i1 %call, label %land.lhs.true, label %return

land.lhs.true:                                    ; preds = %entry
  call void @_ZNK4cvc58internal12NodeTemplateILb1EE7getTypeEb(ptr nonnull sret(%"class.cvc5::internal::TypeNode") align 8 %ref.tmp, ptr noundef nonnull align 8 dereferenceable(8) %d, i1 noundef zeroext false)
  %call2 = invoke noundef zeroext i1 @_ZNK4cvc58internal8TypeNode9isIntegerEv(ptr noundef nonnull align 8 dereferenceable(8) %ref.tmp)
          to label %invoke.cont unwind label %lpad

invoke.cont:                                      ; preds = %land.lhs.true
  br i1 %call2, label %land.lhs.true3, label %cleanup.action20

land.lhs.true3:                                   ; preds = %invoke.cont
  %0 = load ptr, ptr %d, align 8
  %call.i4 = invoke noundef nonnull align 8 dereferenceable(32) ptr @_ZNK4cvc58internal4expr9NodeValue8getConstINS0_8RationalEEERKT_v(ptr noundef nonnull align 8 dereferenceable(16) %0)
          to label %invoke.cont6 unwind label %lpad

invoke.cont6:                                     ; preds = %land.lhs.true3
  %_mp_size.i = getelementptr inbounds i8, ptr %call.i4, i64 4
  %1 = load i32, ptr %_mp_size.i, align 4
  %cmp.inv.i = icmp sgt i32 %1, -1
  br i1 %cmp.inv.i, label %land.rhs, label %cleanup.action20

land.rhs:                                         ; preds = %invoke.cont6
  %2 = load ptr, ptr %d, align 8
  %call.i5 = invoke noundef nonnull align 8 dereferenceable(32) ptr @_ZNK4cvc58internal4expr9NodeValue8getConstINS0_8RationalEEERKT_v(ptr noundef nonnull align 8 dereferenceable(16) %2)
          to label %invoke.cont9 unwind label %lpad

invoke.cont9:                                     ; preds = %land.rhs
  invoke void @__gmpz_init_set(ptr noundef nonnull %ref.tmp8, ptr noundef nonnull %call.i5)
          to label %invoke.cont11 unwind label %lpad

invoke.cont11:                                    ; preds = %invoke.cont9
  %call15 = invoke noundef zeroext i1 @_ZNK4cvc58internal7Integer15fitsUnsignedIntEv(ptr noundef nonnull align 8 dereferenceable(16) %ref.tmp8)
          to label %cleanup.action unwind label %lpad13

cleanup.action:                                   ; preds = %invoke.cont11
  invoke void @__gmpz_clear(ptr noundef nonnull %ref.tmp8)
          to label %cleanup.action20 unwind label %terminate.lpad.i.i

terminate.lpad.i.i:                               ; preds = %cleanup.action
  %3 = landingpad { ptr, i32 }
          catch ptr null
  %4 = extractvalue { ptr, i32 } %3, 0
  call void @__clang_call_terminate(ptr %4) #11
  unreachable

cleanup.action20:                                 ; preds = %invoke.cont, %invoke.cont6, %cleanup.action
  %5 = phi i1 [ %call15, %cleanup.action ], [ false, %invoke.cont6 ], [ false, %invoke.cont ]
  %6 = load ptr, ptr %ref.tmp, align 8
  %bf.load.i.i = load i64, ptr %6, align 8
  %7 = and i64 %bf.load.i.i, 1152920405095219200
  %cmp.not.i.i = icmp eq i64 %7, 1152920405095219200
  br i1 %cmp.not.i.i, label %cleanup.done21, label %if.then.i.i

if.then.i.i:                                      ; preds = %cleanup.action20
  %bf.value.i.i = add i64 %bf.load.i.i, 1152920405095219200
  %bf.shl.i.i = and i64 %bf.value.i.i, 1152920405095219200
  %bf.clear7.i.i = and i64 %bf.load.i.i, -1152920405095219201
  %bf.set.i.i = or disjoint i64 %bf.shl.i.i, %bf.clear7.i.i
  store i64 %bf.set.i.i, ptr %6, align 8
  %cmp12.i.i = icmp eq i64 %bf.shl.i.i, 0
  br i1 %cmp12.i.i, label %if.then13.i.i, label %cleanup.done21

if.then13.i.i:                                    ; preds = %if.then.i.i
  invoke void @_ZN4cvc58internal4expr9NodeValue15markForDeletionEv(ptr noundef nonnull align 8 dereferenceable(16) %6)
          to label %cleanup.done21 unwind label %terminate.lpad.i

terminate.lpad.i:                                 ; preds = %if.then13.i.i
  %8 = landingpad { ptr, i32 }
          catch ptr null
  %9 = extractvalue { ptr, i32 } %8, 0
  call void @__clang_call_terminate(ptr %9) #11
  unreachable

cleanup.done21:                                   ; preds = %if.then13.i.i, %if.then.i.i, %cleanup.action20
  br i1 %5, label %if.then, label %return

if.then:                                          ; preds = %cleanup.done21
  %10 = load ptr, ptr %d, align 8
  %call.i = call noundef nonnull align 8 dereferenceable(32) ptr @_ZNK4cvc58internal4expr9NodeValue8getConstINS0_8RationalEEERKT_v(ptr noundef nonnull align 8 dereferenceable(16) %10)
  call void @__gmpz_init_set(ptr noundef nonnull %ref.tmp25, ptr noundef nonnull %call.i)
  %call29 = invoke noundef i32 @_ZNK4cvc58internal7Integer13toUnsignedIntEv(ptr noundef nonnull align 8 dereferenceable(16) %ref.tmp25)
          to label %invoke.cont28 unwind label %lpad27

invoke.cont28:                                    ; preds = %if.then
  %conv = zext i32 %call29 to i64
  %d_currDifficulty = getelementptr inbounds i8, ptr %this, i64 8
  store i64 %conv, ptr %d_currDifficulty, align 8
  invoke void @__gmpz_clear(ptr noundef nonnull %ref.tmp25)
          to label %return unwind label %terminate.lpad.i.i7

terminate.lpad.i.i7:                              ; preds = %invoke.cont28
  %11 = landingpad { ptr, i32 }
          catch ptr null
  %12 = extractvalue { ptr, i32 } %11, 0
  call void @__clang_call_terminate(ptr %12) #11
  unreachable

lpad:                                             ; preds = %invoke.cont9, %land.rhs, %land.lhs.true3, %land.lhs.true
  %13 = landingpad { ptr, i32 }
          cleanup
  br label %cleanup.action23

lpad13:                                           ; preds = %invoke.cont11
  %14 = landingpad { ptr, i32 }
          cleanup
  invoke void @__gmpz_clear(ptr noundef nonnull %ref.tmp8)
          to label %cleanup.action23 unwind label %terminate.lpad.i.i9

terminate.lpad.i.i9:                              ; preds = %lpad13
  %15 = landingpad { ptr, i32 }
          catch ptr null
  %16 = extractvalue { ptr, i32 } %15, 0
  call void @__clang_call_terminate(ptr %16) #11
  unreachable

cleanup.action23:                                 ; preds = %lpad13, %lpad
  %.pn = phi { ptr, i32 } [ %13, %lpad ], [ %14, %lpad13 ]
  call void @_ZN4cvc58internal8TypeNodeD2Ev(ptr noundef nonnull align 8 dereferenceable(8) %ref.tmp) #12
  br label %eh.resume

lpad27:                                           ; preds = %if.then
  %17 = landingpad { ptr, i32 }
          cleanup
  invoke void @__gmpz_clear(ptr noundef nonnull %ref.tmp25)
          to label %eh.resume unwind label %terminate.lpad.i.i11

terminate.lpad.i.i11:                             ; preds = %lpad27
  %18 = landingpad { ptr, i32 }
          catch ptr null
  %19 = extractvalue { ptr, i32 } %18, 0
  call void @__clang_call_terminate(ptr %19) #11
  unreachable

return:                                           ; preds = %entry, %invoke.cont28, %cleanup.done21
  %20 = phi i1 [ false, %cleanup.done21 ], [ true, %invoke.cont28 ], [ false, %entry ]
  ret i1 %20

eh.resume:                                        ; preds = %lpad27, %cleanup.action23
  %.pn2 = phi { ptr, i32 } [ %.pn, %cleanup.action23 ], [ %17, %lpad27 ]
  resume { ptr, i32 } %.pn2
}